target datalayout = "e-m:e-p270:32:32-p271:32:32-p272:64:64-i64:64-i128:128-f80:128-n8:16:32:64-S128"
target triple = "x86_64-pc-linux-gnu"

%class.JVMState = type { ptr, i32, i32, i32, i32, i32, i32, i32, i32, i32, ptr, ptr }

; Function Attrs: mustprogress nounwind uwtable
define linkonce_odr hidden noundef ptr @_ZNK8JVMState6callerEv(ptr noundef nonnull align 8 dereferenceable(64) %0) #1 comdat align 2 {
  %2 = alloca ptr, align 8
  store ptr %0, ptr %2, align 8
  %3 = load ptr, ptr %2, align 8
  %4 = getelementptr inbounds %class.JVMState, ptr %3, i32 0, i32 0
  %5 = load ptr, ptr %4, align 8
  ret ptr %5
}

; Function Attrs: mustprogress nounwind uwtable
define linkonce_odr hidden noundef i32 @_ZNK8JVMState5depthEv(ptr noundef nonnull align 8 dereferenceable(64) %0) #1 comdat align 2 {
  %2 = alloca ptr, align 8
  store ptr %0, ptr %2, align 8
  %3 = load ptr, ptr %2, align 8
  %4 = getelementptr inbounds %class.JVMState, ptr %3, i32 0, i32 1
  %5 = load i32, ptr %4, align 8
  ret i32 %5
}

; Function Attrs: mustprogress nounwind uwtable
define hidden noundef ptr @_ZNK8JVMState8of_depthEi(ptr noundef nonnull align 8 dereferenceable(64) %0, i32 noundef %1) #1 align 2 {
  %3 = alloca ptr, align 8
  %4 = alloca i32, align 4
  %5 = alloca ptr, align 8
  %6 = alloca i32, align 4
  store ptr %0, ptr %3, align 8
  store i32 %1, ptr %4, align 4
  %7 = load ptr, ptr %3, align 8
  store ptr %7, ptr %5, align 8
  %8 = call noundef i32 @_ZNK8JVMState5depthEv(ptr noundef nonnull align 8 dereferenceable(64) %7)
  %9 = load i32, ptr %4, align 4
  %10 = sub i32 %8, %9
  store i32 %10, ptr %6, align 4
  br label %11

11:                                               ; preds = %17, %2
  %12 = load i32, ptr %6, align 4
  %13 = icmp sgt i32 %12, 0
  br i1 %13, label %14, label %20

14:                                               ; preds = %11
  %15 = load ptr, ptr %5, align 8
  %16 = call noundef ptr @_ZNK8JVMState6callerEv(ptr noundef nonnull align 8 dereferenceable(64) %15)
  store ptr %16, ptr %5, align 8
  br label %17

17:                                               ; preds = %14
  %18 = load i32, ptr %6, align 4
  %19 = add nsw i32 %18, -1
  store i32 %19, ptr %6, align 4
  br label %11, !llvm.loop !6

20:                                               ; preds = %11
  %21 = load ptr, ptr %5, align 8
  ret ptr %21
}