; Function Attrs: mustprogress nofree norecurse nosync nounwind willreturn memory(read, inaccessiblemem: none) uwtable
define hidden noundef ptr @_ZNK8JVMState8of_depthEi(ptr noundef nonnull readonly align 8 dereferenceable(64) %0, i32 noundef %1) local_unnamed_addr #4 align 2 {
  %3 = getelementptr inbounds i8, ptr %0, i64 8
  %4 = load i32, ptr %3, align 8
  %5 = sub i32 %4, %1
  %6 = icmp sgt i32 %5, 0
  br i1 %6, label %.lr.ph, label %._crit_edge

.lr.ph:                                           ; preds = %2, %.lr.ph
  %.07 = phi i32 [ %8, %.lr.ph ], [ %5, %2 ]
  %.056 = phi ptr [ %7, %.lr.ph ], [ %0, %2 ]
  %7 = load ptr, ptr %.056, align 8
  %8 = add nsw i32 %.07, -1
  %9 = icmp ugt i32 %.07, 1
  br i1 %9, label %.lr.ph, label %._crit_edge, !llvm.loop !6

._crit_edge:                                      ; preds = %.lr.ph, %2
  %.05.lcssa = phi ptr [ %0, %2 ], [ %7, %.lr.ph ]
  ret ptr %.05.lcssa
}